target datalayout = "e-m:e-p270:32:32-p271:32:32-p272:64:64-i64:64-i128:128-f80:128-n8:16:32:64-S128"
target triple = "x86_64-pc-linux-gnu"

@.str.2 = private unnamed_addr constant [1 x i8] zeroinitializer, align 1
@.str.14 = private unnamed_addr constant [2 x i8] c"\0A\00", align 1
@.str.28 = private unnamed_addr constant [49 x i8] c"Individual channels:\0ANAME           DESCRIPTION\0A\00", align 1
@.str.29 = private unnamed_addr constant [4 x i8] c"USR\00", align 1
@.str.30 = private unnamed_addr constant [10 x i8] c"%-14s %s\0A\00", align 1
@.str.31 = private unnamed_addr constant [57 x i8] c"\0AStandard channel layouts:\0ANAME           DECOMPOSITION\0A\00", align 1
@.str.32 = private unnamed_addr constant [7 x i8] c"%-14s \00", align 1
@.str.33 = private unnamed_addr constant [5 x i8] c"%s%s\00", align 1
@.str.34 = private unnamed_addr constant [2 x i8] c"+\00", align 1

; Function Attrs: nounwind uwtable
define i32 @show_layouts(ptr noundef %0, ptr noundef %1, ptr noundef %2) #0 {
  %4 = alloca ptr, align 8
  %5 = alloca ptr, align 8
  %6 = alloca ptr, align 8
  %7 = alloca ptr, align 8
  %8 = alloca ptr, align 8
  %9 = alloca [128 x i8], align 16
  %10 = alloca [128 x i8], align 16
  %11 = alloca i32, align 4
  %12 = alloca i32, align 4
  store ptr %0, ptr %4, align 8, !tbaa !4
  store ptr %1, ptr %5, align 8, !tbaa !8
  store ptr %2, ptr %6, align 8, !tbaa !8
  call void @llvm.lifetime.start.p0(i64 8, ptr %7) #11
  call void @llvm.lifetime.start.p0(i64 8, ptr %8) #11
  store ptr null, ptr %8, align 8, !tbaa !4
  call void @llvm.lifetime.start.p0(i64 128, ptr %9) #11
  call void @llvm.lifetime.start.p0(i64 128, ptr %10) #11
  call void @llvm.lifetime.start.p0(i64 4, ptr %11) #11
  store i32 0, ptr %11, align 4, !tbaa !10
  %13 = call i32 (ptr, ...) @printf(ptr noundef @.str.28)
  store i32 0, ptr %11, align 4, !tbaa !10
  br label %14

14:                                               ; preds = %32, %3
  %15 = load i32, ptr %11, align 4, !tbaa !10
  %16 = icmp slt i32 %15, 63
  br i1 %16, label %17, label %35

17:                                               ; preds = %14
  %18 = getelementptr inbounds [128 x i8], ptr %9, i64 0, i64 0
  %19 = load i32, ptr %11, align 4, !tbaa !10
  %20 = call i32 @av_channel_name(ptr noundef %18, i64 noundef 128, i32 noundef %19)
  %21 = getelementptr inbounds [128 x i8], ptr %9, i64 0, i64 0
  %22 = call ptr @strstr(ptr noundef %21, ptr noundef @.str.29) #12
  %23 = icmp ne ptr %22, null
  br i1 %23, label %24, label %25

24:                                               ; preds = %17
  br label %32

25:                                               ; preds = %17
  %26 = getelementptr inbounds [128 x i8], ptr %10, i64 0, i64 0
  %27 = load i32, ptr %11, align 4, !tbaa !10
  %28 = call i32 @av_channel_description(ptr noundef %26, i64 noundef 128, i32 noundef %27)
  %29 = getelementptr inbounds [128 x i8], ptr %9, i64 0, i64 0
  %30 = getelementptr inbounds [128 x i8], ptr %10, i64 0, i64 0
  %31 = call i32 (ptr, ...) @printf(ptr noundef @.str.30, ptr noundef %29, ptr noundef %30)
  br label %32

32:                                               ; preds = %25, %24
  %33 = load i32, ptr %11, align 4, !tbaa !10
  %34 = add nsw i32 %33, 1
  store i32 %34, ptr %11, align 4, !tbaa !10
  br label %14, !llvm.loop !118

35:                                               ; preds = %14
  %36 = call i32 (ptr, ...) @printf(ptr noundef @.str.31)
  br label %37

37:                                               ; preds = %68, %35
  %38 = call ptr @av_channel_layout_standard(ptr noundef %8)
  store ptr %38, ptr %7, align 8, !tbaa !119
  %39 = icmp ne ptr %38, null
  br i1 %39, label %40, label %70

40:                                               ; preds = %37
  %41 = load ptr, ptr %7, align 8, !tbaa !119
  %42 = getelementptr inbounds [128 x i8], ptr %9, i64 0, i64 0
  %43 = call i32 @av_channel_layout_describe(ptr noundef %41, ptr noundef %42, i64 noundef 128)
  %44 = getelementptr inbounds [128 x i8], ptr %9, i64 0, i64 0
  %45 = call i32 (ptr, ...) @printf(ptr noundef @.str.32, ptr noundef %44)
  store i32 0, ptr %11, align 4, !tbaa !10
  br label %46

46:                                               ; preds = %65, %40
  %47 = load i32, ptr %11, align 4, !tbaa !10
  %48 = icmp slt i32 %47, 63
  br i1 %48, label %49, label %68

49:                                               ; preds = %46
  call void @llvm.lifetime.start.p0(i64 4, ptr %12) #11
  %50 = load ptr, ptr %7, align 8, !tbaa !119
  %51 = load i32, ptr %11, align 4, !tbaa !10
  %52 = call i32 @av_channel_layout_index_from_channel(ptr noundef %50, i32 noundef %51)
  store i32 %52, ptr %12, align 4, !tbaa !10
  %53 = load i32, ptr %12, align 4, !tbaa !10
  %54 = icmp sge i32 %53, 0
  br i1 %54, label %55, label %64

55:                                               ; preds = %49
  %56 = getelementptr inbounds [128 x i8], ptr %10, i64 0, i64 0
  %57 = load i32, ptr %11, align 4, !tbaa !10
  %58 = call i32 @av_channel_name(ptr noundef %56, i64 noundef 128, i32 noundef %57)
  %59 = load i32, ptr %12, align 4, !tbaa !10
  %60 = icmp ne i32 %59, 0
  %61 = select i1 %60, ptr @.str.34, ptr @.str.2
  %62 = getelementptr inbounds [128 x i8], ptr %10, i64 0, i64 0
  %63 = call i32 (ptr, ...) @printf(ptr noundef @.str.33, ptr noundef %61, ptr noundef %62)
  br label %64

64:                                               ; preds = %55, %49
  call void @llvm.lifetime.end.p0(i64 4, ptr %12) #11
  br label %65

65:                                               ; preds = %64
  %66 = load i32, ptr %11, align 4, !tbaa !10
  %67 = add nsw i32 %66, 1
  store i32 %67, ptr %11, align 4, !tbaa !10
  br label %46, !llvm.loop !120

68:                                               ; preds = %46
  %69 = call i32 (ptr, ...) @printf(ptr noundef @.str.14)
  br label %37, !llvm.loop !121

70:                                               ; preds = %37
  call void @llvm.lifetime.end.p0(i64 4, ptr %11) #11
  call void @llvm.lifetime.end.p0(i64 128, ptr %10) #11
  call void @llvm.lifetime.end.p0(i64 128, ptr %9) #11
  call void @llvm.lifetime.end.p0(i64 8, ptr %8) #11
  call void @llvm.lifetime.end.p0(i64 8, ptr %7) #11
  ret i32 0
}