; Function Attrs: nounwind uwtable
define noundef i32 @show_layouts(ptr noundef readnone captures(none) %0, ptr noundef readnone captures(none) %1, ptr noundef readnone captures(none) %2) local_unnamed_addr #2 {
  %4 = alloca ptr, align 8
  %5 = alloca [128 x i8], align 16
  %6 = alloca [128 x i8], align 16
  call void @llvm.lifetime.start.p0(i64 8, ptr nonnull %4) #17
  store ptr null, ptr %4, align 8, !tbaa !37
  call void @llvm.lifetime.start.p0(i64 128, ptr nonnull %5) #17
  call void @llvm.lifetime.start.p0(i64 128, ptr nonnull %6) #17
  %puts = tail call i32 @puts(ptr nonnull dereferenceable(1) @str.14)
  br label %7

7:                                                ; preds = %3, %13
  %.016 = phi i32 [ 0, %3 ], [ %14, %13 ]
  %8 = call i32 @av_channel_name(ptr noundef nonnull %5, i64 noundef 128, i32 noundef %.016) #17
  %9 = call ptr @strstr(ptr noundef nonnull dereferenceable(1) %5, ptr noundef nonnull dereferenceable(1) @.str.29) #18
  %.not15 = icmp eq ptr %9, null
  br i1 %.not15, label %10, label %13

10:                                               ; preds = %7
  %11 = call i32 @av_channel_description(ptr noundef nonnull %6, i64 noundef 128, i32 noundef %.016) #17
  %12 = call i32 (ptr, ...) @printf(ptr noundef nonnull dereferenceable(1) @.str.30, ptr noundef nonnull %5, ptr noundef nonnull %6)
  br label %13

13:                                               ; preds = %7, %10
  %14 = add nuw nsw i32 %.016, 1
  %exitcond.not = icmp eq i32 %14, 63
  br i1 %exitcond.not, label %15, label %7, !llvm.loop !101

15:                                               ; preds = %13
  %puts13 = call i32 @puts(ptr nonnull dereferenceable(1) @str.15)
  %16 = call ptr @av_channel_layout_standard(ptr noundef nonnull %4) #17
  %.not18 = icmp eq ptr %16, null
  br i1 %.not18, label %._crit_edge, label %.lr.ph

.lr.ph:                                           ; preds = %15, %29
  %17 = phi ptr [ %30, %29 ], [ %16, %15 ]
  %18 = call i32 @av_channel_layout_describe(ptr noundef nonnull %17, ptr noundef nonnull %5, i64 noundef 128) #17
  %19 = call i32 (ptr, ...) @printf(ptr noundef nonnull dereferenceable(1) @.str.32, ptr noundef nonnull %5)
  br label %20

20:                                               ; preds = %.lr.ph, %27
  %.117 = phi i32 [ 0, %.lr.ph ], [ %28, %27 ]
  %21 = call i32 @av_channel_layout_index_from_channel(ptr noundef nonnull %17, i32 noundef %.117) #17
  %22 = icmp sgt i32 %21, -1
  br i1 %22, label %23, label %27

23:                                               ; preds = %20
  %24 = call i32 @av_channel_name(ptr noundef nonnull %6, i64 noundef 128, i32 noundef %.117) #17
  %.not14 = icmp eq i32 %21, 0
  %25 = select i1 %.not14, ptr @.str.2, ptr @.str.34
  %26 = call i32 (ptr, ...) @printf(ptr noundef nonnull dereferenceable(1) @.str.33, ptr noundef nonnull %25, ptr noundef nonnull %6)
  br label %27

27:                                               ; preds = %23, %20
  %28 = add nuw nsw i32 %.117, 1
  %exitcond19.not = icmp eq i32 %28, 63
  br i1 %exitcond19.not, label %29, label %20, !llvm.loop !102

29:                                               ; preds = %27
  %putchar = call i32 @putchar(i32 10)
  %30 = call ptr @av_channel_layout_standard(ptr noundef nonnull %4) #17
  %.not = icmp eq ptr %30, null
  br i1 %.not, label %._crit_edge, label %.lr.ph, !llvm.loop !103

._crit_edge:                                      ; preds = %29, %15
  call void @llvm.lifetime.end.p0(i64 128, ptr nonnull %6) #17
  call void @llvm.lifetime.end.p0(i64 128, ptr nonnull %5) #17
  call void @llvm.lifetime.end.p0(i64 8, ptr nonnull %4) #17
  ret i32 0
}